; Function Attrs: nounwind uwtable
define internal { i64, i64 } @js_os_realpath(ptr noundef %0, i64 %1, i64 %2, i32 %3, ptr nocapture noundef readonly %4) #0 {
  %6 = alloca [4096 x i8], align 16
  %7 = load i64, ptr %4, align 8
  %8 = getelementptr inbounds i8, ptr %4, i64 8
  %9 = load i64, ptr %8, align 8
  %10 = tail call ptr @JS_ToCStringLen2(ptr noundef %0, ptr noundef null, i64 %7, i64 %9, i32 noundef 0) #29
  %.not = icmp eq ptr %10, null
  br i1 %.not, label %31, label %11

11:                                               ; preds = %5
  %12 = call ptr @realpath(ptr noundef nonnull %10, ptr noundef nonnull %6) #29
  call void @JS_FreeCString(ptr noundef %0, ptr noundef nonnull %10) #29
  %.not11 = icmp eq ptr %12, null
  br i1 %.not11, label %13, label %17

13:                                               ; preds = %11
  store i8 0, ptr %6, align 16
  %14 = tail call ptr @__errno_location() #28
  %15 = load i32, ptr %14, align 4
  %16 = zext i32 %15 to i64
  br label %17

17:                                               ; preds = %11, %13
  %.0 = phi i64 [ %16, %13 ], [ 0, %11 ]
  %18 = call { i64, i64 } @JS_NewString(ptr noundef %0, ptr noundef nonnull %6) #29
  %19 = extractvalue { i64, i64 } %18, 0
  %20 = extractvalue { i64, i64 } %18, 1
  %21 = and i64 %20, 4294967295
  %.not.i.i = icmp eq i64 %21, 6
  br i1 %.not.i.i, label %22, label %23

22:                                               ; preds = %17
  %.sroa.416.0.extract.shift17.i.i = and i64 %19, -4294967296
  br label %make_string_error.exit

23:                                               ; preds = %17
  %24 = call { i64, i64 } @JS_NewArray(ptr noundef %0) #29
  %25 = extractvalue { i64, i64 } %24, 1
  %26 = and i64 %25, 4294967295
  %.not27.i.i = icmp eq i64 %26, 6
  br i1 %.not27.i.i, label %make_string_error.exit, label %27

27:                                               ; preds = %23
  %28 = extractvalue { i64, i64 } %24, 0
  %29 = call i32 @JS_DefinePropertyValueUint32(ptr noundef %0, i64 %28, i64 %25, i32 noundef 0, i64 %19, i64 %20, i32 noundef 7) #29
  %30 = call i32 @JS_DefinePropertyValueUint32(ptr noundef %0, i64 %28, i64 %25, i32 noundef 1, i64 %.0, i64 0, i32 noundef 7) #29
  %.sroa.416.0.extract.shift.i.i = and i64 %28, -4294967296
  br label %make_string_error.exit

make_string_error.exit:                           ; preds = %22, %23, %27
  %.sroa.014.0.i.i = phi i64 [ %19, %22 ], [ %28, %27 ], [ 0, %23 ]
  %.sroa.416.sroa.0.0.i.i = phi i64 [ %.sroa.416.0.extract.shift17.i.i, %22 ], [ %.sroa.416.0.extract.shift.i.i, %27 ], [ 0, %23 ]
  %.sroa.416.sroa.3.0.i.i = phi i64 [ %20, %22 ], [ %25, %27 ], [ 6, %23 ]
  %.sroa.014.0.insert.ext.i.i = and i64 %.sroa.014.0.i.i, 4294967295
  %.sroa.014.0.insert.insert.i.i = or disjoint i64 %.sroa.416.sroa.0.0.i.i, %.sroa.014.0.insert.ext.i.i
  br label %31

31:                                               ; preds = %5, %make_string_error.exit
  %.sroa.3.sroa.2.0 = phi i64 [ %.sroa.416.sroa.3.0.i.i, %make_string_error.exit ], [ 6, %5 ]
  %.sroa.08.0.insert.insert = phi i64 [ %.sroa.014.0.insert.insert.i.i, %make_string_error.exit ], [ 0, %5 ]
  %.fca.0.insert = insertvalue { i64, i64 } poison, i64 %.sroa.08.0.insert.insert, 0
  %.fca.1.insert = insertvalue { i64, i64 } %.fca.0.insert, i64 %.sroa.3.sroa.2.0, 1
  ret { i64, i64 } %.fca.1.insert
}